; Function Attrs: mustprogress nounwind uwtable
define internal fastcc void @_ZN4ncnnL41gridsample_nearest_apply_interpolation_p1ERKNS_3MatERS0_S2_RKNS_6OptionE(ptr noundef nonnull align 8 dereferenceable(72) %0, ptr noundef nonnull align 8 dereferenceable(72) %1, ptr noundef nonnull align 8 dereferenceable(72) %2, ptr noundef nonnull readonly align 8 captures(none) dereferenceable(64) %3) unnamed_addr #6 {
  %5 = alloca i32, align 4
  %6 = alloca i32, align 4
  %7 = tail call i32 @__kmpc_global_thread_num(ptr nonnull @2)
  call void @llvm.lifetime.start.p0(i64 4, ptr nonnull %5) #11
  %8 = getelementptr inbounds nuw i8, ptr %1, i64 56
  %9 = load i32, ptr %8, align 8, !tbaa !16
  store i32 %9, ptr %5, align 4, !tbaa !50
  %10 = getelementptr inbounds nuw i8, ptr %1, i64 44
  %11 = load i32, ptr %10, align 4, !tbaa !25
  %12 = getelementptr inbounds nuw i8, ptr %1, i64 48
  %13 = load i32, ptr %12, align 8, !tbaa !26
  %14 = getelementptr inbounds nuw i8, ptr %1, i64 52
  %15 = load i32, ptr %14, align 4, !tbaa !27
  call void @llvm.lifetime.start.p0(i64 4, ptr nonnull %6) #11
  %16 = mul nsw i32 %13, %11
  %17 = mul nsw i32 %16, %15
  store i32 %17, ptr %6, align 4, !tbaa !50
  %18 = getelementptr inbounds nuw i8, ptr %3, i64 4
  %19 = load i32, ptr %18, align 4, !tbaa !51
  tail call void @__kmpc_push_num_threads(ptr nonnull @2, i32 %7, i32 %19)
  call void (ptr, i32, ptr, ...) @__kmpc_fork_call(ptr nonnull @2, i32 5, ptr nonnull @_ZN4ncnnL41gridsample_nearest_apply_interpolation_p1ERKNS_3MatERS0_S2_RKNS_6OptionE.omp_outlined, ptr nonnull %5, ptr nonnull %0, ptr nonnull %1, ptr nonnull %2, ptr nonnull %6)
  call void @llvm.lifetime.end.p0(i64 4, ptr nonnull %6) #11
  call void @llvm.lifetime.end.p0(i64 4, ptr nonnull %5) #11
  ret void
}